; Function Attrs: mustprogress nofree norecurse nosync nounwind willreturn memory(read, inaccessiblemem: none) uwtable
define dso_local noundef zeroext i1 @_ZN4Luau6detail18isToposortableNodeERKNS_7AstStatE(ptr nocapture noundef nonnull readonly align 8 dereferenceable(29) %0) local_unnamed_addr #5 {
  %2 = getelementptr inbounds i8, ptr %0, i64 8
  %3 = load i32, ptr %2, align 8
  %4 = load i32, ptr @_ZN4Luau7AstRttiINS_15AstStatFunctionEE5valueE, align 4
  %5 = icmp eq i32 %3, %4
  %6 = load i32, ptr @_ZN4Luau7AstRttiINS_20AstStatLocalFunctionEE5valueE, align 4
  %7 = icmp eq i32 %3, %6
  %8 = select i1 %5, i1 true, i1 %7
  br i1 %8, label %12, label %9

9:                                                ; preds = %1
  %10 = load i32, ptr @_ZN4Luau7AstRttiINS_16AstStatTypeAliasEE5valueE, align 4
  %11 = icmp eq i32 %3, %10
  br label %12

12:                                               ; preds = %9, %1
  %13 = phi i1 [ true, %1 ], [ %11, %9 ]
  ret i1 %13
}